; Function Attrs: null_pointer_is_valid sspstrong uwtable
define hidden i32 @dissect_ndr_nt_LOGON_HOURS(ptr noundef %0, i32 noundef %1, ptr noundef %2, ptr noundef %3, ptr noundef %4, ptr noundef %5) local_unnamed_addr #0 {
  %7 = alloca ptr, align 8
  call void @llvm.lifetime.start.p0(i64 8, ptr nonnull %7) #9
  %8 = getelementptr inbounds nuw i8, ptr %4, i64 25
  %9 = load i8, ptr %8, align 1, !range !6, !noundef !7
  %10 = trunc nuw i8 %9 to i1
  %11 = and i32 %1, 3
  %.not = icmp eq i32 %11, 0
  %or.cond = or i1 %.not, %10
  %12 = and i32 %1, -4
  %13 = add i32 %12, 4
  %.0 = select i1 %or.cond, i32 %1, i32 %13
  %14 = load i32, ptr @ett_nt_logon_hours, align 4
  %15 = call ptr @proto_tree_add_subtree(ptr noundef %3, ptr noundef %0, i32 noundef %.0, i32 noundef -1, i32 noundef %14, ptr noundef nonnull %7, ptr noundef nonnull @.str.18)
  %16 = load i32, ptr @hf_logonhours_divisions, align 4
  %17 = call i32 @dissect_ndr_uint16(ptr noundef %0, i32 noundef %.0, ptr noundef %2, ptr noundef %15, ptr noundef %4, ptr noundef %5, i32 noundef %16, ptr noundef null)
  %18 = call i32 @dissect_ndr_pointer(ptr noundef %0, i32 noundef %17, ptr noundef %2, ptr noundef %15, ptr noundef %4, ptr noundef %5, ptr noundef nonnull @dissect_LOGON_HOURS_hours, i32 noundef 2, ptr noundef nonnull @.str.19, i32 noundef -1)
  %19 = load ptr, ptr %7, align 8
  %20 = sub i32 %18, %1
  call void @proto_item_set_len(ptr noundef %19, i32 noundef %20)
  call void @llvm.lifetime.end.p0(i64 8, ptr nonnull %7) #9
  ret i32 %18
}